; Function Attrs: mustprogress uwtable
define void @_ZN6colvar7dihedPC14calc_gradientsEv(ptr noundef nonnull readonly align 8 captures(none) dereferenceable(1656) %0) unnamed_addr #2 align 2 {
  %2 = getelementptr inbounds nuw i8, ptr %0, i64 1608
  %3 = getelementptr inbounds nuw i8, ptr %0, i64 1616
  %4 = load ptr, ptr %3, align 8, !tbaa !259
  %5 = load ptr, ptr %2, align 8, !tbaa !265
  %.not = icmp eq ptr %4, %5
  br i1 %.not, label %._crit_edge, label %.lr.ph

._crit_edge:                                      ; preds = %.lr.ph, %1
  ret void

.lr.ph:                                           ; preds = %1, %.lr.ph
  %6 = phi ptr [ %14, %.lr.ph ], [ %5, %1 ]
  %.03 = phi i64 [ %12, %.lr.ph ], [ 0, %1 ]
  %7 = getelementptr inbounds nuw ptr, ptr %6, i64 %.03
  %8 = load ptr, ptr %7, align 8, !tbaa !263
  %9 = load ptr, ptr %8, align 8, !tbaa !14
  %10 = getelementptr inbounds nuw i8, ptr %9, i64 120
  %11 = load ptr, ptr %10, align 8
  tail call void %11(ptr noundef nonnull align 8 dereferenceable(1713) %8)
  %12 = add nuw i64 %.03, 1
  %13 = load ptr, ptr %3, align 8, !tbaa !259
  %14 = load ptr, ptr %2, align 8, !tbaa !265
  %15 = ptrtoint ptr %13 to i64
  %16 = ptrtoint ptr %14 to i64
  %17 = sub i64 %15, %16
  %18 = ashr exact i64 %17, 3
  %19 = icmp ult i64 %12, %18
  br i1 %19, label %.lr.ph, label %._crit_edge, !llvm.loop !269
}